; Function Attrs: mustprogress uwtable
define void @_ZNK5arrow15Decimal256Array11FormatValueB5cxx11El(ptr dead_on_unwind noalias writable sret(%"class.std::__cxx11::basic_string") align 8 %0, ptr noundef nonnull readonly align 8 captures(none) dereferenceable(52) %1, i64 noundef %2) local_unnamed_addr #1 align 2 {
  %4 = alloca %"class.arrow::Decimal256", align 8
  %5 = getelementptr inbounds nuw i8, ptr %1, i64 8
  %6 = load ptr, ptr %5, align 8, !tbaa !34
  %7 = load ptr, ptr %6, align 8, !tbaa !40
  call void @llvm.lifetime.start.p0(i64 32, ptr nonnull %4) #10
  %8 = getelementptr inbounds nuw i8, ptr %1, i64 40
  %9 = load ptr, ptr %8, align 8, !tbaa !60
  %10 = getelementptr inbounds nuw i8, ptr %1, i64 48
  %11 = load i32, ptr %10, align 8, !tbaa !67
  %12 = sext i32 %11 to i64
  %13 = mul nsw i64 %2, %12
  %14 = getelementptr inbounds i8, ptr %9, i64 %13
  call void @llvm.memcpy.p0.p0.i64(ptr noundef nonnull align 8 dereferenceable(32) %4, ptr noundef nonnull align 1 dereferenceable(32) %14, i64 32, i1 false)
  %15 = getelementptr inbounds nuw i8, ptr %7, i64 80
  %16 = load i32, ptr %15, align 8, !tbaa !68
  call void @_ZNK5arrow10Decimal2568ToStringB5cxx11Ei(ptr dead_on_unwind writable sret(%"class.std::__cxx11::basic_string") align 8 %0, ptr noundef nonnull align 8 dereferenceable(32) %4, i32 noundef %16)
  call void @llvm.lifetime.end.p0(i64 32, ptr nonnull %4) #10
  ret void
}